; Function Attrs: mustprogress uwtable
define dso_local void @_ZN6spdlog7details8registry6get_tpEv(ptr dead_on_unwind noalias writable writeonly sret(%"class.std::shared_ptr") align 8 captures(none) %0, ptr noundef nonnull align 8 dereferenceable(336) %1) local_unnamed_addr #6 align 2 personality ptr @__gxx_personality_v0 {
  %3 = getelementptr inbounds nuw i8, ptr %1, i64 80
  %4 = tail call noundef i32 @pthread_mutex_lock(ptr noundef nonnull align 8 dereferenceable(40) %3) #37
  %.not.i.i = icmp eq i32 %4, 0
  br i1 %.not.i.i, label %_ZNSt10lock_guardISt15recursive_mutexEC2ERS0_.exit, label %5

5:                                                ; preds = %2
  tail call void @_ZSt20__throw_system_errori(i32 noundef %4) #43
  unreachable

_ZNSt10lock_guardISt15recursive_mutexEC2ERS0_.exit: ; preds = %2
  %6 = getelementptr inbounds nuw i8, ptr %1, i64 280
  %7 = load ptr, ptr %6, align 8, !tbaa !172
  store ptr %7, ptr %0, align 8, !tbaa !172
  %8 = getelementptr inbounds nuw i8, ptr %0, i64 8
  %9 = getelementptr inbounds nuw i8, ptr %1, i64 288
  %10 = load ptr, ptr %9, align 8, !tbaa !151
  store ptr %10, ptr %8, align 8, !tbaa !151
  %.not.i.i.i = icmp eq ptr %10, null
  br i1 %.not.i.i.i, label %_ZNSt10shared_ptrIN6spdlog7details11thread_poolEEC2ERKS3_.exit, label %11

11:                                               ; preds = %_ZNSt10lock_guardISt15recursive_mutexEC2ERS0_.exit
  %12 = getelementptr inbounds nuw i8, ptr %10, i64 8
  %13 = load i8, ptr @__libc_single_threaded, align 1, !tbaa !17
  %.not.i.i.i.i = icmp eq i8 %13, 0
  br i1 %.not.i.i.i.i, label %17, label %14

14:                                               ; preds = %11
  %15 = load i32, ptr %12, align 4, !tbaa !54
  %16 = add nsw i32 %15, 1
  store i32 %16, ptr %12, align 4, !tbaa !54
  br label %_ZNSt10shared_ptrIN6spdlog7details11thread_poolEEC2ERKS3_.exit

17:                                               ; preds = %11
  %18 = atomicrmw volatile add ptr %12, i32 1 acq_rel, align 4
  br label %_ZNSt10shared_ptrIN6spdlog7details11thread_poolEEC2ERKS3_.exit

_ZNSt10shared_ptrIN6spdlog7details11thread_poolEEC2ERKS3_.exit: ; preds = %_ZNSt10lock_guardISt15recursive_mutexEC2ERS0_.exit, %14, %17
  %19 = tail call noundef i32 @pthread_mutex_unlock(ptr noundef nonnull align 8 dereferenceable(40) %3) #37
  ret void
}